(dp0
VCrawford's Purchase
p1
VCoos
p2
sVAlbany
p3
VCarroll
p4
sVBean's Purchase
p5
g2
sVSargent's Purchase
p6
g2
sVLyman
p7
VGrafton
p8
sVOssipee
p9
g4
sVHarrisville
p10
VCheshire
p11
sVFitzwilliam
p12
g11
sVKensington
p13
VRockingham
p14
sVClarksville
p15
g2
sVWalpole
p16
g11
sVRindge
p17
g11
sVHill
p18
VMerrimack
p19
sVEnfield
p20
g8
sVStoddard
p21
g11
sVAllenstown
p22
g19
sVShelburne
p23
g2
sVCornish
p24
VSullivan
p25
sVMilford
p26
VHillsborough
p27
sVLebanon
p28
g8
sVColumbia
p29
g2
sVDixville
p30
g2
sVMarlborough
p31
g11
sVFremont
p32
g14
sVNewfields
p33
g14
sVBrookline
p34
g27
sVWeare
p35
g27
sVRochester
p36
VStrafford
p37
sVGreen's Grant
p38
g2
sVMadbury
p39
g37
sVCharlestown
p40
g25
sVNew Boston
p41
g27
sVThornton
p42
g8
sVEaston
p43
g8
sVBedford
p44
g27
sVCandia
p45
g14
sVSanbornton
p46
VBelknap
p47
sVHancock
p48
g27
sVDublin
p49
g11
sVWakefield
p50
g4
sVNew Durham
p51
g37
sVAntrim
p52
g27
sVEaton
p53
g4
sVNelson
p54
g11
sVSandown
p55
g14
sVSunapee
p56
g25
sVWebster
p57
g19
sVChesterfield
p58
g11
sVTemple
p59
g27
sVExeter
p60
g14
sVGoshen
p61
g25
sVAlexandria
p62
g8
sVWindsor
p63
g27
sVGilsum
p64
g11
sVSullivan
p65
g11
sVWarren
p66
g8
sVConway
p67
g4
sVCutt's Grant
p68
g2
sVAndover
p69
g19
sVTilton
p70
g47
sVNottingham
p71
g14
sVMilan
p72
g2
sVDurham
p73
g37
sVManchester
p74
g27
sVDalton
p75
g2
sVSecond College Grant
p76
g2
sVEffingham
p77
g4
sVFranconia
p78
g8
sVMartin's Location
p79
g2
sVCenter Harbor
p80
g47
sVSugar Hill
p81
g8
sVGroton
p82
g8
sVJackson
p83
g4
sVCampton
p84
g8
sVWinchester
p85
g11
sVBelmont
p86
g47
sVBridgewater
p87
g8
sVDix's Grant
p88
g2
sVWentworth's Location
p89
g2
sVBennington
p90
g27
sVMason
p91
g27
sVHillsborough
p92
g27
sVLee
p93
g37
sVUnity
p94
g25
sVJefferson
p95
g2
sVOrange
p96
g8
sVAuburn
p97
g14
sVHebron
p98
g8
sVGrantham
p99
g25
sVBrentwood
p100
g14
sVPittsfield
p101
g19
sVWolfeboro
p102
g4
sVClaremont
p103
g25
sVHaverhill
p104
g8
sVTroy
p105
g11
sVBrookfield
p106
g4
sVBerlin
p107
g2
sVNewmarket
p108
g14
sVDeering
p109
g27
sVHooksett
p110
g19
sVAcworth
p111
g25
sVHart's Location
p112
g4
sVNorthfield
p113
g19
sVSouth Hampton
p114
g14
sVFreedom
p115
g4
sVNorthumberland
p116
g2
sVNorth Hampton
p117
g14
sVSeabrook
p118
g14
sVBow
p119
g19
sVWashington
p120
g25
sVSandwich
p121
g4
sVChester
p122
g14
sVEast Kingston
p123
g14
sVHinsdale
p124
g11
sVMont Vernon
p125
g27
sVLandaff
p126
g8
sVPelham
p127
g27
sVPinkham's Grant
p128
g2
sVNewington
p129
g14
sVMadison
p130
g4
sVCambridge
p131
g2
sVDanbury
p132
g19
sVLondonderry
p133
g14
sVLangdon
p134
g25
sVEpping
p135
g14
sVWaterville Valley
p136
g8
sVDorchester
p137
g8
sVMiddleton
p138
g37
sVStratford
p139
g2
sVAmherst
p140
g27
sVErving's Location
p141
g2
sVDummer
p142
g2
sVWestmoreland
p143
g11
sVOdell
p144
g2
sVChatham
p145
g4
sVDerry
p146
g14
sVLyndeborough
p147
g27
sVPeterborough
p148
g27
sVGreenville
p149
g27
sVStark
p150
g2
sVRichmond
p151
g11
sVPlaistow
p152
g14
sVHadley's Purchase
p153
g2
sVAt. & Gil. Academy Grant
p154
g2
sVPiermont
p155
g8
sVMoultonborough
p156
g4
sVOrford
p157
g8
sVRollinsford
p158
g37
sVNewbury
p159
g19
sVBarnstead
p160
g47
sVStratham
p161
g14
sVNew Ipswich
p162
g27
sVNewton
p163
g14
sVDeerfield
p164
g14
sVChichester
p165
g19
sVStewartstown
p166
g2
sVSomersworth
p167
g37
sVTamworth
p168
g4
sVSalem
p169
g14
sVLittleton
p170
g8
sVNorthwood
p171
g14
sVGilmanton
p172
g47
sVHopkinton
p173
g19
sVBartlett
p174
g4
sVColebrook
p175
g2
sVWarner
p176
g19
sVDunbarton
p177
g19
sVBradford
p178
g19
sVSutton
p179
g19
sVLincoln
p180
g8
sVRye
p181
g14
sVRoxbury
p182
g11
sVSuccess
p183
g2
sVLitchfield
p184
g27
sVErrol
p185
g2
sVLaconia
p186
g47
sVMarlow
p187
g11
sVWilmot
p188
g19
sVPortsmouth
p189
g14
sVNew Hampton
p190
g47
sVFranklin
p191
g19
sVWilton
p192
g27
sVTuftonboro
p193
g4
sVLyme
p194
g8
sVLempster
p195
g25
sVNew London
p196
g19
sVSwanzey
p197
g11
sVGreenfield
p198
g27
sVConcord
p199
g19
sVPittsburg
p200
g2
sVCarroll
p201
g2
sVBath
p202
g8
sVCanaan
p203
g8
sVCroydon
p204
g25
sVGreenland
p205
g14
sVBethlehem
p206
g8
sVBean's Grant
p207
g2
sVLancaster
p208
g2
sVSharon
p209
g27
sVLivermore
p210
g8
sVKingston
p211
g14
sVStrafford
p212
g37
sVAlstead
p213
g11
sVLow & Burbank's Grant
p214
g2
sVFarmington
p215
g37
sVHudson
p216
g27
sVThompson & Meserve's Pur.
p217
g2
sVMerrimack
p218
g27
sVHolderness
p219
g8
sVHenniker
p220
g19
sVAtkinson
p221
g14
sVPlainfield
p222
g25
sVGoffstown
p223
g27
sVRumney
p224
g8
sVDanville
p225
g14
sVWhitefield
p226
g2
sVLoudon
p227
g19
sVJaffrey
p228
g11
sVChandler's Purchase
p229
g2
sVWoodstock
p230
g8
sVRaymond
p231
g14
sVAlton
p232
g47
sVGrafton
p233
g8
sVMillsfield
p234
g2
sVHale's Location
p235
g4
sVMeredith
p236
g47
sVSpringfield
p237
g25
sVBoscawen
p238
g19
sVWindham
p239
g14
sVHampstead
p240
g14
sVMilton
p241
g37
sVHanover
p242
g8
sVBarrington
p243
g37
sVPembroke
p244
g19
sVKeene
p245
g11
sVBenton
p246
g8
sVWentworth
p247
g8
sVHollis
p248
g27
sVPlymouth
p249
g8
sVBristol
p250
g8
sVAshland
p251
g8
sVKilkenny
p252
g2
sVDover
p253
g37
sVNew Castle
p254
g14
sVHampton
p255
g14
sVHampton Falls
p256
g14
sVFrancestown
p257
g27
sVNashua
p258
g27
sVEpsom
p259
g19
sVSurry
p260
g11
sVNewport
p261
g25
sVGilford
p262
g47
sVSalisbury
p263
g19
sVLisbon
p264
g8
sVGorham
p265
g2
sVRandolph
p266
g2
sVEllsworth
p267
g8
sVMonroe
p268
g8
sVCanterbury
p269
g19
s.